target datalayout = "e-m:e-p270:32:32-p271:32:32-p272:64:64-i64:64-i128:128-f80:128-n8:16:32:64-S128"
target triple = "x86_64-pc-linux-gnu"

%"class.icu_77::UObject" = type { ptr }
%"struct.icu_77::SingleUnitImpl" = type { i32, i32, i32 }
%"class.icu_77::MeasureUnit" = type <{ %"class.icu_77::UObject", ptr, i16, i8, [5 x i8] }>

; Function Attrs: mustprogress uwtable
define void @_ZNK6icu_7711MeasureUnit18withDimensionalityEiR10UErrorCode(ptr dead_on_unwind noalias writable sret(%"class.icu_77::MeasureUnit") align 8 %0, ptr noundef nonnull align 8 dereferenceable(19) %1, i32 noundef %2, ptr noundef nonnull align 4 dereferenceable(4) %3) #1 align 2 {
  %5 = alloca ptr, align 8
  %6 = alloca ptr, align 8
  %7 = alloca i32, align 4
  %8 = alloca ptr, align 8
  %9 = alloca %"struct.icu_77::SingleUnitImpl", align 4
  %10 = alloca { i64, i32 }, align 8
  store ptr %0, ptr %5, align 8
  store ptr %1, ptr %6, align 8, !tbaa !84
  store i32 %2, ptr %7, align 4, !tbaa !14
  store ptr %3, ptr %8, align 8, !tbaa !22
  %11 = load ptr, ptr %6, align 8
  call void @llvm.lifetime.start.p0(i64 12, ptr %9) #14
  %12 = load ptr, ptr %8, align 8, !tbaa !22
  %13 = call { i64, i32 } @_ZN6icu_7714SingleUnitImpl14forMeasureUnitERKNS_11MeasureUnitER10UErrorCode(ptr noundef nonnull align 8 dereferenceable(19) %11, ptr noundef nonnull align 4 dereferenceable(4) %12)
  store { i64, i32 } %13, ptr %10, align 8
  call void @llvm.memcpy.p0.p0.i64(ptr align 4 %9, ptr align 8 %10, i64 12, i1 false)
  %14 = load i32, ptr %7, align 4, !tbaa !14
  %15 = getelementptr inbounds nuw %"struct.icu_77::SingleUnitImpl", ptr %9, i32 0, i32 2
  store i32 %14, ptr %15, align 4, !tbaa !72
  %16 = load ptr, ptr %8, align 8, !tbaa !22
  call void @_ZNK6icu_7714SingleUnitImpl5buildER10UErrorCode(ptr dead_on_unwind writable sret(%"class.icu_77::MeasureUnit") align 8 %0, ptr noundef nonnull align 4 dereferenceable(12) %9, ptr noundef nonnull align 4 dereferenceable(4) %16)
  call void @llvm.lifetime.end.p0(i64 12, ptr %9) #14
  ret void
}